; ModuleID = '23/807.c'
source_filename = "23/807.c"
target datalayout = "e-m:e-p270:32:32-p271:32:32-p272:64:64-i64:64-f80:128-n8:16:32:64-S128"
target triple = "x86_64-pc-linux-gnu"

@.str = private unnamed_addr constant [3 x i8] c"%c\00", align 1
@.str.1 = private unnamed_addr constant [2 x i8] c" \00", align 1

; Function Attrs: noinline nounwind uwtable
define dso_local i32 @swap(i8* %0, i32 %1) #0 {
  %3 = alloca i8*, align 8
  %4 = alloca i32, align 4
  %5 = alloca i8*, align 8
  %6 = alloca i8*, align 8
  store i8* %0, i8** %3, align 8
  store i32 %1, i32* %4, align 4
  %7 = load i8*, i8** %3, align 8
  %8 = load i32, i32* %4, align 4
  %9 = sext i32 %8 to i64
  %10 = sub i64 0, %9
  %11 = getelementptr inbounds i8, i8* %7, i64 %10
  %12 = getelementptr inbounds i8, i8* %11, i64 1
  store i8* %12, i8** %5, align 8
  br label %13

13:                                               ; preds = %63, %2
  %14 = load i8*, i8** %3, align 8
  %15 = load i8*, i8** %5, align 8
  %16 = icmp uge i8* %14, %15
  br i1 %16, label %17, label %66

17:                                               ; preds = %13
  %18 = load i8*, i8** %3, align 8
  %19 = load i8, i8* %18, align 1
  %20 = sext i8 %19 to i32
  %21 = icmp eq i32 %20, 32
  br i1 %21, label %22, label %62

22:                                               ; preds = %17
  %23 = load i8*, i8** %3, align 8
  store i8* %23, i8** %6, align 8
  %24 = load i8*, i8** %6, align 8
  %25 = load i8*, i8** %5, align 8
  %26 = icmp ne i8* %24, %25
  br i1 %26, label %27, label %61

27:                                               ; preds = %22
  %28 = load i8*, i8** %3, align 8
  %29 = getelementptr inbounds i8, i8* %28, i64 1
  store i8* %29, i8** %3, align 8
  br label %30

30:                                               ; preds = %55, %27
  %31 = load i8*, i8** %3, align 8
  %32 = load i8, i8* %31, align 1
  %33 = sext i8 %32 to i32
  %34 = icmp ne i32 %33, 0
  br i1 %34, label %35, label %58

35:                                               ; preds = %30
  %36 = load i8*, i8** %3, align 8
  %37 = load i8, i8* %36, align 1
  %38 = sext i8 %37 to i32
  %39 = call i32 (i8*, ...) @printf(i8* getelementptr inbounds ([3 x i8], [3 x i8]* @.str, i64 0, i64 0), i32 %38)
  %40 = load i8*, i8** %3, align 8
  %41 = getelementptr inbounds i8, i8* %40, i64 1
  %42 = load i8, i8* %41, align 1
  %43 = sext i8 %42 to i32
  %44 = icmp eq i32 %43, 0
  br i1 %44, label %45, label %47

45:                                               ; preds = %35
  %46 = call i32 (i8*, ...) @printf(i8* getelementptr inbounds ([2 x i8], [2 x i8]* @.str.1, i64 0, i64 0))
  br label %58

47:                                               ; preds = %35
  %48 = load i8*, i8** %3, align 8
  %49 = load i8, i8* %48, align 1
  %50 = sext i8 %49 to i32
  %51 = icmp eq i32 %50, 32
  br i1 %51, label %52, label %53

52:                                               ; preds = %47
  br label %58

53:                                               ; preds = %47
  br label %54

54:                                               ; preds = %53
  br label %55

55:                                               ; preds = %54
  %56 = load i8*, i8** %3, align 8
  %57 = getelementptr inbounds i8, i8* %56, i32 1
  store i8* %57, i8** %3, align 8
  br label %30

58:                                               ; preds = %52, %45, %30
  %59 = load i8*, i8** %6, align 8
  %60 = getelementptr inbounds i8, i8* %59, i64 -1
  store i8* %60, i8** %3, align 8
  br label %61

61:                                               ; preds = %58, %22
  br label %62

62:                                               ; preds = %61, %17
  br label %63

63:                                               ; preds = %62
  %64 = load i8*, i8** %3, align 8
  %65 = getelementptr inbounds i8, i8* %64, i32 -1
  store i8* %65, i8** %3, align 8
  br label %13

66:                                               ; preds = %13
  %67 = load i8*, i8** %5, align 8
  store i8* %67, i8** %3, align 8
  br label %68

68:                                               ; preds = %85, %66
  %69 = load i8*, i8** %3, align 8
  %70 = load i8, i8* %69, align 1
  %71 = sext i8 %70 to i32
  %72 = icmp eq i32 %71, 32
  br i1 %72, label %78, label %73

73:                                               ; preds = %68
  %74 = load i8*, i8** %3, align 8
  %75 = load i8, i8* %74, align 1
  %76 = sext i8 %75 to i32
  %77 = icmp eq i32 %76, 0
  br i1 %77, label %78, label %79

78:                                               ; preds = %73, %68
  br label %88

79:                                               ; preds = %73
  %80 = load i8*, i8** %3, align 8
  %81 = load i8, i8* %80, align 1
  %82 = sext i8 %81 to i32
  %83 = call i32 (i8*, ...) @printf(i8* getelementptr inbounds ([3 x i8], [3 x i8]* @.str, i64 0, i64 0), i32 %82)
  br label %84

84:                                               ; preds = %79
  br label %85

85:                                               ; preds = %84
  %86 = load i8*, i8** %3, align 8
  %87 = getelementptr inbounds i8, i8* %86, i32 1
  store i8* %87, i8** %3, align 8
  br label %68

88:                                               ; preds = %78
  ret i32 0
}

declare dso_local i32 @printf(i8*, ...) #1

; Function Attrs: noinline nounwind uwtable
define dso_local i32 @main() #0 {
  %1 = alloca i8*, align 8
  %2 = alloca [1000 x i8], align 16
  %3 = alloca i32, align 4
  %4 = getelementptr inbounds [1000 x i8], [1000 x i8]* %2, i64 0, i64 0
  %5 = call i32 (i8*, ...) bitcast (i32 (...)* @gets to i32 (i8*, ...)*)(i8* %4)
  %6 = getelementptr inbounds [1000 x i8], [1000 x i8]* %2, i64 0, i64 0
  %7 = call i64 @strlen(i8* %6) #3
  %8 = trunc i64 %7 to i32
  store i32 %8, i32* %3, align 4
  %9 = getelementptr inbounds [1000 x i8], [1000 x i8]* %2, i64 0, i64 0
  %10 = load i32, i32* %3, align 4
  %11 = sext i32 %10 to i64
  %12 = getelementptr inbounds i8, i8* %9, i64 %11
  %13 = getelementptr inbounds i8, i8* %12, i64 -1
  store i8* %13, i8** %1, align 8
  %14 = load i8*, i8** %1, align 8
  %15 = load i32, i32* %3, align 4
  %16 = call i32 @swap(i8* %14, i32 %15)
  ret i32 0
}

declare dso_local i32 @gets(...) #1

; Function Attrs: nounwind readonly
declare dso_local i64 @strlen(i8*) #2


!llvm.module.flags = !{!0}
!llvm.ident = !{!1}

!0 = !{i32 1, !"wchar_size", i32 4}
!1 = !{!"clang version 10.0.0-4ubuntu1 "}
